target datalayout = "e-m:e-p270:32:32-p271:32:32-p272:64:64-i64:64-i128:128-f80:128-n8:16:32:64-S128"
target triple = "x86_64-pc-linux-gnu"

@.str.19 = private unnamed_addr constant [34 x i8] c"Supported file protocols:\0AInput:\0A\00", align 1
@.str.20 = private unnamed_addr constant [6 x i8] c"  %s\0A\00", align 1
@.str.21 = private unnamed_addr constant [9 x i8] c"Output:\0A\00", align 1

; Function Attrs: nounwind uwtable
define i32 @show_protocols(ptr noundef %0, ptr noundef %1, ptr noundef %2) #0 {
  %4 = alloca ptr, align 8
  %5 = alloca ptr, align 8
  %6 = alloca ptr, align 8
  %7 = alloca ptr, align 8
  %8 = alloca ptr, align 8
  store ptr %0, ptr %4, align 8, !tbaa !4
  store ptr %1, ptr %5, align 8, !tbaa !8
  store ptr %2, ptr %6, align 8, !tbaa !8
  call void @llvm.lifetime.start.p0(i64 8, ptr %7) #11
  store ptr null, ptr %7, align 8, !tbaa !4
  call void @llvm.lifetime.start.p0(i64 8, ptr %8) #11
  %9 = call i32 (ptr, ...) @printf(ptr noundef @.str.19)
  br label %10

10:                                               ; preds = %13, %3
  %11 = call ptr @avio_enum_protocols(ptr noundef %7, i32 noundef 0)
  store ptr %11, ptr %8, align 8, !tbaa !8
  %12 = icmp ne ptr %11, null
  br i1 %12, label %13, label %16

13:                                               ; preds = %10
  %14 = load ptr, ptr %8, align 8, !tbaa !8
  %15 = call i32 (ptr, ...) @printf(ptr noundef @.str.20, ptr noundef %14)
  br label %10, !llvm.loop !104

16:                                               ; preds = %10
  %17 = call i32 (ptr, ...) @printf(ptr noundef @.str.21)
  br label %18

18:                                               ; preds = %21, %16
  %19 = call ptr @avio_enum_protocols(ptr noundef %7, i32 noundef 1)
  store ptr %19, ptr %8, align 8, !tbaa !8
  %20 = icmp ne ptr %19, null
  br i1 %20, label %21, label %24

21:                                               ; preds = %18
  %22 = load ptr, ptr %8, align 8, !tbaa !8
  %23 = call i32 (ptr, ...) @printf(ptr noundef @.str.20, ptr noundef %22)
  br label %18, !llvm.loop !105

24:                                               ; preds = %18
  call void @llvm.lifetime.end.p0(i64 8, ptr %8) #11
  call void @llvm.lifetime.end.p0(i64 8, ptr %7) #11
  ret i32 0
}