; Function Attrs: nounwind uwtable
define noundef i32 @show_protocols(ptr noundef readnone captures(none) %0, ptr noundef readnone captures(none) %1, ptr noundef readnone captures(none) %2) local_unnamed_addr #2 {
  %4 = alloca ptr, align 8
  call void @llvm.lifetime.start.p0(i64 8, ptr nonnull %4) #17
  store ptr null, ptr %4, align 8, !tbaa !37
  %puts = tail call i32 @puts(ptr nonnull dereferenceable(1) @str.11)
  %5 = call ptr @avio_enum_protocols(ptr noundef nonnull %4, i32 noundef 0) #17
  %.not5 = icmp eq ptr %5, null
  br i1 %.not5, label %._crit_edge, label %.lr.ph

.lr.ph:                                           ; preds = %3, %.lr.ph
  %6 = phi ptr [ %8, %.lr.ph ], [ %5, %3 ]
  %7 = call i32 (ptr, ...) @printf(ptr noundef nonnull dereferenceable(1) @.str.20, ptr noundef nonnull %6)
  %8 = call ptr @avio_enum_protocols(ptr noundef nonnull %4, i32 noundef 0) #17
  %.not = icmp eq ptr %8, null
  br i1 %.not, label %._crit_edge, label %.lr.ph, !llvm.loop !89

._crit_edge:                                      ; preds = %.lr.ph, %3
  %puts3 = call i32 @puts(ptr nonnull dereferenceable(1) @str.12)
  %9 = call ptr @avio_enum_protocols(ptr noundef nonnull %4, i32 noundef 1) #17
  %.not46 = icmp eq ptr %9, null
  br i1 %.not46, label %._crit_edge9, label %.lr.ph8

.lr.ph8:                                          ; preds = %._crit_edge, %.lr.ph8
  %10 = phi ptr [ %12, %.lr.ph8 ], [ %9, %._crit_edge ]
  %11 = call i32 (ptr, ...) @printf(ptr noundef nonnull dereferenceable(1) @.str.20, ptr noundef nonnull %10)
  %12 = call ptr @avio_enum_protocols(ptr noundef nonnull %4, i32 noundef 1) #17
  %.not4 = icmp eq ptr %12, null
  br i1 %.not4, label %._crit_edge9, label %.lr.ph8, !llvm.loop !90

._crit_edge9:                                     ; preds = %.lr.ph8, %._crit_edge
  call void @llvm.lifetime.end.p0(i64 8, ptr nonnull %4) #17
  ret i32 0
}